target datalayout = "e-m:e-p270:32:32-p271:32:32-p272:64:64-i64:64-i128:128-f80:128-n8:16:32:64-S128"
target triple = "x86_64-pc-linux-gnu"

%"class.ceres::internal::DoglegStrategy" = type { %"class.ceres::internal::TrustRegionStrategy", ptr, double, double, double, double, double, double, double, double, double, double, %"class.Eigen::Matrix", %"class.Eigen::Matrix", %"class.Eigen::Matrix", %"class.Eigen::Matrix", double, double, i8, i32, i8, %"class.Eigen::Matrix.3", %"class.Eigen::Matrix.12", %"class.Eigen::Matrix.21" }
%"class.ceres::internal::TrustRegionStrategy" = type { ptr }
%"class.Eigen::Matrix" = type { %"class.Eigen::PlainObjectBase" }
%"class.Eigen::PlainObjectBase" = type { %"class.Eigen::DenseStorage" }
%"class.Eigen::DenseStorage" = type { ptr, i64 }
%"class.Eigen::Matrix.3" = type { %"class.Eigen::PlainObjectBase.4" }
%"class.Eigen::PlainObjectBase.4" = type { %"class.Eigen::DenseStorage.11" }
%"class.Eigen::DenseStorage.11" = type { ptr, i64, i64 }
%"class.Eigen::Matrix.12" = type { %"class.Eigen::PlainObjectBase.13" }
%"class.Eigen::PlainObjectBase.13" = type { %"class.Eigen::DenseStorage.20" }
%"class.Eigen::DenseStorage.20" = type { %"struct.Eigen::internal::plain_array" }
%"struct.Eigen::internal::plain_array" = type { [2 x double] }
%"class.Eigen::Matrix.21" = type { %"class.Eigen::PlainObjectBase.22" }
%"class.Eigen::PlainObjectBase.22" = type { %"class.Eigen::DenseStorage.29" }
%"class.Eigen::DenseStorage.29" = type { %"struct.Eigen::internal::plain_array.30" }
%"struct.Eigen::internal::plain_array.30" = type { [4 x double] }

; Function Attrs: mustprogress nounwind uwtable
define hidden void @_ZN5ceres8internal14DoglegStrategy12StepRejectedEd(ptr noundef nonnull align 8 dereferenceable(264) %0, double noundef %1) unnamed_addr #1 align 2 {
  %3 = alloca ptr, align 8
  %4 = alloca double, align 8
  store ptr %0, ptr %3, align 8, !tbaa !14
  store double %1, ptr %4, align 8, !tbaa !66
  %5 = load ptr, ptr %3, align 8
  %6 = getelementptr inbounds nuw %"class.ceres::internal::DoglegStrategy", ptr %5, i32 0, i32 2
  %7 = load double, ptr %6, align 8, !tbaa !49
  %8 = fmul double %7, 5.000000e-01
  store double %8, ptr %6, align 8, !tbaa !49
  %9 = getelementptr inbounds nuw %"class.ceres::internal::DoglegStrategy", ptr %5, i32 0, i32 18
  store i8 1, ptr %9, align 8, !tbaa !63
  ret void
}