; Function Attrs: mustprogress nofree norecurse nosync nounwind willreturn memory(argmem: readwrite) uwtable
define hidden void @_ZN5ceres8internal14DoglegStrategy12StepRejectedEd(ptr noundef nonnull align 8 captures(none) dereferenceable(264) initializes((176, 177)) %0, double %1) unnamed_addr #13 align 2 {
  %3 = getelementptr inbounds nuw i8, ptr %0, i64 16
  %4 = load double, ptr %3, align 8, !tbaa !37
  %5 = fmul double %4, 5.000000e-01
  store double %5, ptr %3, align 8, !tbaa !37
  %6 = getelementptr inbounds nuw i8, ptr %0, i64 176
  store i8 1, ptr %6, align 8, !tbaa !51
  ret void
}